target datalayout = "e-m:e-p270:32:32-p271:32:32-p272:64:64-i64:64-i128:128-f80:128-n8:16:32:64-S128"
target triple = "x86_64-pc-linux-gnu"

%struct.DependencyGeneratorData = type { i32, i32, i32, i16, ptr }

; Function Attrs: nounwind uwtable
define internal void @generate_dependencies_recurse(ptr noundef %0, i32 noundef %1, i16 noundef signext %2, ptr noundef %3) #0 {
  %5 = alloca ptr, align 8
  %6 = alloca i32, align 4
  %7 = alloca i16, align 2
  %8 = alloca ptr, align 8
  %9 = alloca i16, align 2
  %10 = alloca i32, align 4
  %11 = alloca i32, align 4
  %12 = alloca i8, align 1
  store ptr %0, ptr %5, align 8
  store i32 %1, ptr %6, align 4
  store i16 %2, ptr %7, align 2
  store ptr %3, ptr %8, align 8
  %13 = load i32, ptr %6, align 4
  %14 = load ptr, ptr %5, align 8
  %15 = getelementptr inbounds nuw %struct.DependencyGeneratorData, ptr %14, i32 0, i32 0
  %16 = load i32, ptr %15, align 8
  %17 = sub i32 %16, 1
  %18 = icmp slt i32 %13, %17
  br i1 %18, label %19, label %46

19:                                               ; preds = %4
  call void @llvm.lifetime.start.p0(i64 2, ptr %9) #8
  %20 = load i16, ptr %7, align 2
  store i16 %20, ptr %9, align 2
  br label %21

21:                                               ; preds = %42, %19
  %22 = load i16, ptr %9, align 2
  %23 = sext i16 %22 to i32
  %24 = load ptr, ptr %5, align 8
  %25 = getelementptr inbounds nuw %struct.DependencyGeneratorData, ptr %24, i32 0, i32 1
  %26 = load i32, ptr %25, align 4
  %27 = icmp slt i32 %23, %26
  br i1 %27, label %28, label %45

28:                                               ; preds = %21
  %29 = load i16, ptr %9, align 2
  %30 = load ptr, ptr %8, align 8
  %31 = load i32, ptr %6, align 4
  %32 = sext i32 %31 to i64
  %33 = getelementptr inbounds i16, ptr %30, i64 %32
  store i16 %29, ptr %33, align 2
  %34 = load ptr, ptr %5, align 8
  %35 = load i32, ptr %6, align 4
  %36 = add i32 %35, 1
  %37 = load i16, ptr %9, align 2
  %38 = sext i16 %37 to i32
  %39 = add i32 %38, 1
  %40 = trunc i32 %39 to i16
  %41 = load ptr, ptr %8, align 8
  call void @generate_dependencies_recurse(ptr noundef %34, i32 noundef %36, i16 noundef signext %40, ptr noundef %41)
  br label %42

42:                                               ; preds = %28
  %43 = load i16, ptr %9, align 2
  %44 = add i16 %43, 1
  store i16 %44, ptr %9, align 2
  br label %21, !llvm.loop !42

45:                                               ; preds = %21
  call void @llvm.lifetime.end.p0(i64 2, ptr %9) #8
  br label %127

46:                                               ; preds = %4
  call void @llvm.lifetime.start.p0(i64 4, ptr %10) #8
  store i32 0, ptr %10, align 4
  br label %47

47:                                               ; preds = %123, %46
  %48 = load i32, ptr %10, align 4
  %49 = load ptr, ptr %5, align 8
  %50 = getelementptr inbounds nuw %struct.DependencyGeneratorData, ptr %49, i32 0, i32 1
  %51 = load i32, ptr %50, align 4
  %52 = icmp slt i32 %48, %51
  br i1 %52, label %53, label %126

53:                                               ; preds = %47
  call void @llvm.lifetime.start.p0(i64 4, ptr %11) #8
  call void @llvm.lifetime.start.p0(i64 1, ptr %12) #8
  store i8 0, ptr %12, align 1
  %54 = load i32, ptr %10, align 4
  %55 = trunc i32 %54 to i16
  %56 = load ptr, ptr %8, align 8
  %57 = load i32, ptr %6, align 4
  %58 = sext i32 %57 to i64
  %59 = getelementptr inbounds i16, ptr %56, i64 %58
  store i16 %55, ptr %59, align 2
  store i32 0, ptr %11, align 4
  br label %60

60:                                               ; preds = %75, %53
  %61 = load i32, ptr %11, align 4
  %62 = load i32, ptr %6, align 4
  %63 = icmp slt i32 %61, %62
  br i1 %63, label %64, label %78

64:                                               ; preds = %60
  %65 = load ptr, ptr %8, align 8
  %66 = load i32, ptr %11, align 4
  %67 = sext i32 %66 to i64
  %68 = getelementptr inbounds i16, ptr %65, i64 %67
  %69 = load i16, ptr %68, align 2
  %70 = sext i16 %69 to i32
  %71 = load i32, ptr %10, align 4
  %72 = icmp eq i32 %70, %71
  br i1 %72, label %73, label %74

73:                                               ; preds = %64
  store i8 1, ptr %12, align 1
  br label %78

74:                                               ; preds = %64
  br label %75

75:                                               ; preds = %74
  %76 = load i32, ptr %11, align 4
  %77 = add i32 %76, 1
  store i32 %77, ptr %11, align 4
  br label %60, !llvm.loop !43

78:                                               ; preds = %73, %60
  %79 = load i8, ptr %12, align 1, !range !14, !noundef !15
  %80 = trunc i8 %79 to i1
  br i1 %80, label %122, label %81

81:                                               ; preds = %78
  %82 = load ptr, ptr %5, align 8
  %83 = getelementptr inbounds nuw %struct.DependencyGeneratorData, ptr %82, i32 0, i32 4
  %84 = load ptr, ptr %83, align 8
  %85 = load ptr, ptr %5, align 8
  %86 = getelementptr inbounds nuw %struct.DependencyGeneratorData, ptr %85, i32 0, i32 0
  %87 = load i32, ptr %86, align 8
  %88 = load ptr, ptr %5, align 8
  %89 = getelementptr inbounds nuw %struct.DependencyGeneratorData, ptr %88, i32 0, i32 3
  %90 = load i16, ptr %89, align 4
  %91 = sext i16 %90 to i32
  %92 = add i32 %91, 1
  %93 = mul i32 %87, %92
  %94 = sext i32 %93 to i64
  %95 = mul i64 %94, 2
  %96 = call ptr @repalloc(ptr noundef %84, i64 noundef %95)
  %97 = load ptr, ptr %5, align 8
  %98 = getelementptr inbounds nuw %struct.DependencyGeneratorData, ptr %97, i32 0, i32 4
  store ptr %96, ptr %98, align 8
  %99 = load ptr, ptr %5, align 8
  %100 = getelementptr inbounds nuw %struct.DependencyGeneratorData, ptr %99, i32 0, i32 4
  %101 = load ptr, ptr %100, align 8
  %102 = load ptr, ptr %5, align 8
  %103 = getelementptr inbounds nuw %struct.DependencyGeneratorData, ptr %102, i32 0, i32 0
  %104 = load i32, ptr %103, align 8
  %105 = load ptr, ptr %5, align 8
  %106 = getelementptr inbounds nuw %struct.DependencyGeneratorData, ptr %105, i32 0, i32 3
  %107 = load i16, ptr %106, align 4
  %108 = sext i16 %107 to i32
  %109 = mul i32 %104, %108
  %110 = sext i32 %109 to i64
  %111 = getelementptr inbounds i16, ptr %101, i64 %110
  %112 = load ptr, ptr %8, align 8
  %113 = load ptr, ptr %5, align 8
  %114 = getelementptr inbounds nuw %struct.DependencyGeneratorData, ptr %113, i32 0, i32 0
  %115 = load i32, ptr %114, align 8
  %116 = sext i32 %115 to i64
  %117 = mul i64 %116, 2
  call void @llvm.memcpy.p0.p0.i64(ptr align 2 %111, ptr align 2 %112, i64 %117, i1 false)
  %118 = load ptr, ptr %5, align 8
  %119 = getelementptr inbounds nuw %struct.DependencyGeneratorData, ptr %118, i32 0, i32 3
  %120 = load i16, ptr %119, align 4
  %121 = add i16 %120, 1
  store i16 %121, ptr %119, align 4
  br label %122

122:                                              ; preds = %81, %78
  call void @llvm.lifetime.end.p0(i64 1, ptr %12) #8
  call void @llvm.lifetime.end.p0(i64 4, ptr %11) #8
  br label %123

123:                                              ; preds = %122
  %124 = load i32, ptr %10, align 4
  %125 = add i32 %124, 1
  store i32 %125, ptr %10, align 4
  br label %47, !llvm.loop !44

126:                                              ; preds = %47
  call void @llvm.lifetime.end.p0(i64 4, ptr %10) #8
  br label %127

127:                                              ; preds = %126, %45
  ret void
}