; Function Attrs: nounwind uwtable
define internal fastcc void @generate_dependencies_recurse(ptr noundef captures(none) %0, i32 noundef %1, i16 noundef signext %2, ptr noundef captures(none) %3) unnamed_addr #0 {
  %5 = load i32, ptr %0, align 8
  %6 = add i32 %5, -1
  %7 = icmp slt i32 %1, %6
  %8 = getelementptr inbounds nuw i8, ptr %0, i64 4
  br i1 %7, label %.preheader, label %.preheader41

.preheader41:                                     ; preds = %4
  %9 = load i32, ptr %8, align 4
  %10 = icmp sgt i32 %9, 0
  br i1 %10, label %.lr.ph46, label %.loopexit

.lr.ph46:                                         ; preds = %.preheader41
  %11 = sext i32 %1 to i64
  %12 = getelementptr inbounds i16, ptr %3, i64 %11
  %13 = icmp sgt i32 %1, 0
  %14 = getelementptr inbounds nuw i8, ptr %0, i64 16
  %15 = getelementptr inbounds nuw i8, ptr %0, i64 12
  br i1 %13, label %.lr.ph.us.preheader, label %.critedge

.lr.ph.us.preheader:                              ; preds = %.lr.ph46
  %wide.trip.count = zext nneg i32 %1 to i64
  br label %.lr.ph.us

.lr.ph.us:                                        ; preds = %.lr.ph.us.preheader, %.loopexit40.us
  %.03644.us = phi i32 [ %23, %.loopexit40.us ], [ 0, %.lr.ph.us.preheader ]
  %16 = trunc i32 %.03644.us to i16
  store i16 %16, ptr %12, align 2
  br label %18

17:                                               ; preds = %18
  %indvars.iv.next = add nuw nsw i64 %indvars.iv, 1
  %exitcond.not = icmp eq i64 %indvars.iv.next, %wide.trip.count
  br i1 %exitcond.not, label %..critedge_crit_edge.us, label %18, !llvm.loop !36

18:                                               ; preds = %.lr.ph.us, %17
  %indvars.iv = phi i64 [ 0, %.lr.ph.us ], [ %indvars.iv.next, %17 ]
  %19 = getelementptr inbounds nuw i16, ptr %3, i64 %indvars.iv
  %20 = load i16, ptr %19, align 2
  %21 = sext i16 %20 to i32
  %22 = icmp eq i32 %.03644.us, %21
  br i1 %22, label %.loopexit40.us, label %17

.loopexit40.us:                                   ; preds = %18, %..critedge_crit_edge.us
  %23 = add nuw nsw i32 %.03644.us, 1
  %24 = load i32, ptr %8, align 4
  %25 = icmp slt i32 %23, %24
  br i1 %25, label %.lr.ph.us, label %.loopexit, !llvm.loop !37

..critedge_crit_edge.us:                          ; preds = %17
  %26 = load ptr, ptr %14, align 8
  %27 = load i32, ptr %0, align 8
  %28 = load i16, ptr %15, align 4
  %29 = sext i16 %28 to i32
  %30 = add nsw i32 %29, 1
  %31 = mul i32 %30, %27
  %32 = sext i32 %31 to i64
  %33 = shl nsw i64 %32, 1
  %34 = tail call ptr @repalloc(ptr noundef %26, i64 noundef %33) #8
  store ptr %34, ptr %14, align 8
  %35 = load i32, ptr %0, align 8
  %36 = load i16, ptr %15, align 4
  %37 = sext i16 %36 to i32
  %38 = mul i32 %35, %37
  %39 = sext i32 %38 to i64
  %40 = getelementptr inbounds i16, ptr %34, i64 %39
  %41 = sext i32 %35 to i64
  %42 = shl nsw i64 %41, 1
  tail call void @llvm.memcpy.p0.p0.i64(ptr align 2 %40, ptr nonnull align 2 %3, i64 %42, i1 false)
  %43 = load i16, ptr %15, align 4
  %44 = add i16 %43, 1
  store i16 %44, ptr %15, align 4
  br label %.loopexit40.us

.preheader:                                       ; preds = %4
  %45 = sext i16 %2 to i32
  %46 = load i32, ptr %8, align 4
  %47 = icmp sgt i32 %46, %45
  br i1 %47, label %.lr.ph, label %.loopexit

.lr.ph:                                           ; preds = %.preheader
  %48 = sext i32 %1 to i64
  %49 = getelementptr inbounds i16, ptr %3, i64 %48
  %50 = add nsw i32 %1, 1
  br label %51

51:                                               ; preds = %.lr.ph, %51
  %.03747 = phi i16 [ %2, %.lr.ph ], [ %52, %51 ]
  store i16 %.03747, ptr %49, align 2
  %52 = add i16 %.03747, 1
  tail call fastcc void @generate_dependencies_recurse(ptr noundef nonnull %0, i32 noundef %50, i16 noundef signext %52, ptr noundef %3)
  %53 = sext i16 %52 to i32
  %54 = load i32, ptr %8, align 4
  %55 = icmp sgt i32 %54, %53
  br i1 %55, label %51, label %.loopexit, !llvm.loop !38

.critedge:                                        ; preds = %.lr.ph46, %.critedge
  %.03644 = phi i32 [ %76, %.critedge ], [ 0, %.lr.ph46 ]
  %56 = trunc i32 %.03644 to i16
  store i16 %56, ptr %12, align 2
  %57 = load ptr, ptr %14, align 8
  %58 = load i32, ptr %0, align 8
  %59 = load i16, ptr %15, align 4
  %60 = sext i16 %59 to i32
  %61 = add nsw i32 %60, 1
  %62 = mul i32 %61, %58
  %63 = sext i32 %62 to i64
  %64 = shl nsw i64 %63, 1
  %65 = tail call ptr @repalloc(ptr noundef %57, i64 noundef %64) #8
  store ptr %65, ptr %14, align 8
  %66 = load i32, ptr %0, align 8
  %67 = load i16, ptr %15, align 4
  %68 = sext i16 %67 to i32
  %69 = mul i32 %66, %68
  %70 = sext i32 %69 to i64
  %71 = getelementptr inbounds i16, ptr %65, i64 %70
  %72 = sext i32 %66 to i64
  %73 = shl nsw i64 %72, 1
  tail call void @llvm.memcpy.p0.p0.i64(ptr align 2 %71, ptr nonnull align 2 %3, i64 %73, i1 false)
  %74 = load i16, ptr %15, align 4
  %75 = add i16 %74, 1
  store i16 %75, ptr %15, align 4
  %76 = add nuw nsw i32 %.03644, 1
  %77 = load i32, ptr %8, align 4
  %78 = icmp slt i32 %76, %77
  br i1 %78, label %.critedge, label %.loopexit, !llvm.loop !37

.loopexit:                                        ; preds = %.critedge, %.loopexit40.us, %51, %.preheader41, %.preheader
  ret void
}